; Function Attrs: mustprogress uwtable
define noundef nonnull align 8 dereferenceable(64) ptr @_Z34uspoof_getSkeletonUnicodeString_75PK13USpoofCheckerjRKN6icu_7513UnicodeStringERS3_P10UErrorCode(ptr noundef %sc, i32 %0, ptr noundef nonnull align 8 dereferenceable(64) %id, ptr noundef nonnull returned align 8 dereferenceable(64) %dest, ptr noundef nonnull %status) local_unnamed_addr #0 personality ptr @__gxx_personality_v0 {
entry:
  %nfdId = alloca %"class.icu_75::UnicodeString", align 8
  %skelStr = alloca %"class.icu_75::UnicodeString", align 8
  %call = tail call noundef ptr @_ZN6icu_759SpoofImpl12validateThisEPK13USpoofCheckerR10UErrorCode(ptr noundef %sc, ptr noundef nonnull align 4 dereferenceable(4) %status)
  %1 = load i32, ptr %status, align 4
  %cmp.i = icmp slt i32 %1, 1
  br i1 %cmp.i, label %if.end, label %return

if.end:                                           ; preds = %entry
  store ptr getelementptr inbounds ({ [13 x ptr] }, ptr @_ZTVN6icu_7513UnicodeStringE, i64 0, i32 0, i64 2), ptr %nfdId, align 8
  %fUnion2.i = getelementptr inbounds i8, ptr %nfdId, i64 8
  store i16 2, ptr %fUnion2.i, align 8
  %2 = load ptr, ptr @_ZL14gNfdNormalizer, align 8
  %vtable = load ptr, ptr %2, align 8
  %vfn = getelementptr inbounds i8, ptr %vtable, i64 24
  %3 = load ptr, ptr %vfn, align 8
  %call2 = invoke noundef nonnull align 8 dereferenceable(64) ptr %3(ptr noundef nonnull align 8 dereferenceable(8) %2, ptr noundef nonnull align 8 dereferenceable(64) %id, ptr noundef nonnull align 8 dereferenceable(64) %nfdId, ptr noundef nonnull align 4 dereferenceable(4) %status)
          to label %invoke.cont3 unwind label %lpad

invoke.cont3:                                     ; preds = %if.end
  store ptr getelementptr inbounds ({ [13 x ptr] }, ptr @_ZTVN6icu_7513UnicodeStringE, i64 0, i32 0, i64 2), ptr %skelStr, align 8
  %fUnion2.i11 = getelementptr inbounds i8, ptr %skelStr, i64 8
  store i16 2, ptr %fUnion2.i11, align 8
  %4 = load i16, ptr %fUnion2.i, align 8
  %cmp.i.i = icmp slt i16 %4, 0
  %5 = ashr i16 %4, 5
  %shr.i.i = sext i16 %5 to i32
  %fLength.i = getelementptr inbounds i8, ptr %nfdId, i64 12
  %6 = load i32, ptr %fLength.i, align 4
  %cond.i = select i1 %cmp.i.i, i32 %6, i32 %shr.i.i
  %cmp12 = icmp sgt i32 %cond.i, 0
  br i1 %cmp12, label %for.body.lr.ph, label %for.end

for.body.lr.ph:                                   ; preds = %invoke.cont3
  %fSpoofData = getelementptr inbounds i8, ptr %call, i64 16
  br label %for.body

for.body:                                         ; preds = %for.body.lr.ph, %if.end16
  %inputIndex.013 = phi i32 [ 0, %for.body.lr.ph ], [ %add, %if.end16 ]
  %call8 = invoke noundef i32 @_ZNK6icu_7513UnicodeString8char32AtEi(ptr noundef nonnull align 8 dereferenceable(64) %nfdId, i32 noundef %inputIndex.013)
          to label %invoke.cont7 unwind label %lpad4.loopexit

invoke.cont7:                                     ; preds = %for.body
  %cmp9 = icmp ult i32 %call8, 65536
  %cond = select i1 %cmp9, i32 1, i32 2
  %add = add nuw nsw i32 %cond, %inputIndex.013
  %call11 = invoke signext i8 @u_hasBinaryProperty_75(i32 noundef %call8, i32 noundef 5)
          to label %invoke.cont10 unwind label %lpad4.loopexit

invoke.cont10:                                    ; preds = %invoke.cont7
  %tobool12.not = icmp eq i8 %call11, 0
  br i1 %tobool12.not, label %if.then13, label %if.end16

if.then13:                                        ; preds = %invoke.cont10
  %7 = load ptr, ptr %fSpoofData, align 8
  %call15 = invoke noundef i32 @_ZNK6icu_759SpoofData16confusableLookupEiRNS_13UnicodeStringE(ptr noundef nonnull align 8 dereferenceable(56) %7, i32 noundef %call8, ptr noundef nonnull align 8 dereferenceable(64) %skelStr)
          to label %if.end16 unwind label %lpad4.loopexit

lpad:                                             ; preds = %if.end
  %8 = landingpad { ptr, i32 }
          cleanup
  br label %ehcleanup

lpad4.loopexit:                                   ; preds = %for.body, %invoke.cont7, %if.then13
  %lpad.loopexit = landingpad { ptr, i32 }
          cleanup
  br label %lpad4

lpad4.loopexit.split-lp:                          ; preds = %for.end
  %lpad.loopexit.split-lp = landingpad { ptr, i32 }
          cleanup
  br label %lpad4

lpad4:                                            ; preds = %lpad4.loopexit.split-lp, %lpad4.loopexit
  %lpad.phi = phi { ptr, i32 } [ %lpad.loopexit, %lpad4.loopexit ], [ %lpad.loopexit.split-lp, %lpad4.loopexit.split-lp ]
  call void @_ZN6icu_7513UnicodeStringD1Ev(ptr noundef nonnull align 8 dereferenceable(64) %skelStr) #6
  br label %ehcleanup

if.end16:                                         ; preds = %if.then13, %invoke.cont10
  %cmp = icmp slt i32 %add, %cond.i
  br i1 %cmp, label %for.body, label %for.end, !llvm.loop !5

for.end:                                          ; preds = %if.end16, %invoke.cont3
  %9 = load ptr, ptr @_ZL14gNfdNormalizer, align 8
  %vtable17 = load ptr, ptr %9, align 8
  %vfn18 = getelementptr inbounds i8, ptr %vtable17, i64 24
  %10 = load ptr, ptr %vfn18, align 8
  %call20 = invoke noundef nonnull align 8 dereferenceable(64) ptr %10(ptr noundef nonnull align 8 dereferenceable(8) %9, ptr noundef nonnull align 8 dereferenceable(64) %skelStr, ptr noundef nonnull align 8 dereferenceable(64) %dest, ptr noundef nonnull align 4 dereferenceable(4) %status)
          to label %invoke.cont19 unwind label %lpad4.loopexit.split-lp

invoke.cont19:                                    ; preds = %for.end
  call void @_ZN6icu_7513UnicodeStringD1Ev(ptr noundef nonnull align 8 dereferenceable(64) %skelStr) #6
  call void @_ZN6icu_7513UnicodeStringD1Ev(ptr noundef nonnull align 8 dereferenceable(64) %nfdId) #6
  br label %return

ehcleanup:                                        ; preds = %lpad4, %lpad
  %.pn = phi { ptr, i32 } [ %lpad.phi, %lpad4 ], [ %8, %lpad ]
  call void @_ZN6icu_7513UnicodeStringD1Ev(ptr noundef nonnull align 8 dereferenceable(64) %nfdId) #6
  resume { ptr, i32 } %.pn

return:                                           ; preds = %entry, %invoke.cont19
  ret ptr %dest
}